; Function Attrs: mustprogress uwtable
define noundef zeroext i16 @_ZN10open_spiel10phantom_go9MakePointENSt7__cxx1112basic_stringIcSt11char_traitsIcESaIcEEE(ptr noundef nonnull %0) local_unnamed_addr #8 {
  %2 = tail call ptr @_ZNSt7__cxx1112basic_stringIcSt11char_traitsIcESaIcEE5beginEv(ptr noundef nonnull align 8 dereferenceable(32) %0) #26
  %3 = tail call ptr @_ZNSt7__cxx1112basic_stringIcSt11char_traitsIcESaIcEE3endEv(ptr noundef nonnull align 8 dereferenceable(32) %0) #26
  %4 = tail call ptr @_ZNSt7__cxx1112basic_stringIcSt11char_traitsIcESaIcEE5beginEv(ptr noundef nonnull align 8 dereferenceable(32) %0) #26
  %.not6.i = icmp eq ptr %2, %3
  br i1 %.not6.i, label %_ZSt9transformIN9__gnu_cxx17__normal_iteratorIPcNSt7__cxx1112basic_stringIcSt11char_traitsIcESaIcEEEEES9_PDoFiiEET0_T_SD_SC_T1_.exit, label %.lr.ph.i

.lr.ph.i:                                         ; preds = %1, %.lr.ph.i
  %.sroa.0.08.i = phi ptr [ %10, %.lr.ph.i ], [ %4, %1 ]
  %.sroa.03.07.i = phi ptr [ %9, %.lr.ph.i ], [ %2, %1 ]
  %5 = load i8, ptr %.sroa.03.07.i, align 1
  %6 = sext i8 %5 to i32
  %7 = tail call noundef i32 @tolower(i32 noundef %6) #26
  %8 = trunc i32 %7 to i8
  store i8 %8, ptr %.sroa.0.08.i, align 1
  %9 = getelementptr inbounds i8, ptr %.sroa.03.07.i, i64 1
  %10 = getelementptr inbounds i8, ptr %.sroa.0.08.i, i64 1
  %.not.i = icmp eq ptr %9, %3
  br i1 %.not.i, label %_ZSt9transformIN9__gnu_cxx17__normal_iteratorIPcNSt7__cxx1112basic_stringIcSt11char_traitsIcESaIcEEEEES9_PDoFiiEET0_T_SD_SC_T1_.exit, label %.lr.ph.i, !llvm.loop !5

_ZSt9transformIN9__gnu_cxx17__normal_iteratorIPcNSt7__cxx1112basic_stringIcSt11char_traitsIcESaIcEEEEES9_PDoFiiEET0_T_SD_SC_T1_.exit: ; preds = %.lr.ph.i, %1
  %11 = tail call noundef i32 @_ZNKSt7__cxx1112basic_stringIcSt11char_traitsIcESaIcEE7compareEPKc(ptr noundef nonnull align 8 dereferenceable(32) %0, ptr noundef nonnull @.str.10) #26
  %12 = icmp eq i32 %11, 0
  br i1 %12, label %44, label %13

13:                                               ; preds = %_ZSt9transformIN9__gnu_cxx17__normal_iteratorIPcNSt7__cxx1112basic_stringIcSt11char_traitsIcESaIcEEEEES9_PDoFiiEET0_T_SD_SC_T1_.exit
  %14 = tail call noundef i64 @_ZNKSt7__cxx1112basic_stringIcSt11char_traitsIcESaIcEE4sizeEv(ptr noundef nonnull align 8 dereferenceable(32) %0) #26
  %15 = icmp ult i64 %14, 2
  br i1 %15, label %44, label %16

16:                                               ; preds = %13
  %17 = tail call noundef i64 @_ZNKSt7__cxx1112basic_stringIcSt11char_traitsIcESaIcEE4sizeEv(ptr noundef nonnull align 8 dereferenceable(32) %0) #26
  %18 = icmp ugt i64 %17, 3
  br i1 %18, label %44, label %19

19:                                               ; preds = %16
  %20 = tail call noundef nonnull align 1 dereferenceable(1) ptr @_ZNSt7__cxx1112basic_stringIcSt11char_traitsIcESaIcEEixEm(ptr noundef nonnull align 8 dereferenceable(32) %0, i64 noundef 0)
  %21 = load i8, ptr %20, align 1
  %22 = icmp slt i8 %21, 105
  %23 = tail call noundef nonnull align 1 dereferenceable(1) ptr @_ZNSt7__cxx1112basic_stringIcSt11char_traitsIcESaIcEEixEm(ptr noundef nonnull align 8 dereferenceable(32) %0, i64 noundef 0)
  %24 = load i8, ptr %23, align 1
  %25 = sext i8 %24 to i16
  %. = select i1 %22, i16 -97, i16 -98
  %26 = add nsw i16 %., %25
  %27 = tail call noundef nonnull align 1 dereferenceable(1) ptr @_ZNSt7__cxx1112basic_stringIcSt11char_traitsIcESaIcEEixEm(ptr noundef nonnull align 8 dereferenceable(32) %0, i64 noundef 1)
  %28 = load i8, ptr %27, align 1
  %29 = sext i8 %28 to i16
  %30 = add nsw i16 %29, -48
  %31 = tail call noundef i64 @_ZNKSt7__cxx1112basic_stringIcSt11char_traitsIcESaIcEE4sizeEv(ptr noundef nonnull align 8 dereferenceable(32) %0) #26
  %32 = icmp eq i64 %31, 3
  br i1 %32, label %33, label %40

33:                                               ; preds = %19
  %34 = mul nsw i16 %30, 10
  %35 = tail call noundef nonnull align 1 dereferenceable(1) ptr @_ZNSt7__cxx1112basic_stringIcSt11char_traitsIcESaIcEEixEm(ptr noundef nonnull align 8 dereferenceable(32) %0, i64 noundef 2)
  %36 = load i8, ptr %35, align 1
  %37 = sext i8 %36 to i16
  %38 = add nsw i16 %34, -48
  %39 = add nsw i16 %38, %37
  br label %40

40:                                               ; preds = %33, %19
  %.0 = phi i16 [ %39, %33 ], [ %30, %19 ]
  %41 = mul i16 %.0, 21
  %42 = add nsw i16 %26, 1
  %43 = add i16 %42, %41
  br label %44

44:                                               ; preds = %13, %16, %_ZSt9transformIN9__gnu_cxx17__normal_iteratorIPcNSt7__cxx1112basic_stringIcSt11char_traitsIcESaIcEEEEES9_PDoFiiEET0_T_SD_SC_T1_.exit, %40
  %.07 = phi i16 [ %43, %40 ], [ 442, %_ZSt9transformIN9__gnu_cxx17__normal_iteratorIPcNSt7__cxx1112basic_stringIcSt11char_traitsIcESaIcEEEEES9_PDoFiiEET0_T_SD_SC_T1_.exit ], [ 0, %16 ], [ 0, %13 ]
  ret i16 %.07
}